target datalayout = "e-m:e-p270:32:32-p271:32:32-p272:64:64-i64:64-i128:128-f80:128-n8:16:32:64-S128"
target triple = "x86_64-pc-linux-gnu"

; Function Attrs: mustprogress nounwind uwtable
define void @_Z4itoalPcm(i64 noundef %0, ptr noundef %1, i64 noundef %2) #0 {
  %4 = alloca i64, align 8
  %5 = alloca ptr, align 8
  %6 = alloca i64, align 8
  %7 = alloca [50 x i8], align 16
  %8 = alloca i64, align 8
  %9 = alloca i32, align 4
  %10 = alloca i64, align 8
  store i64 %0, ptr %4, align 8
  store ptr %1, ptr %5, align 8
  store i64 %2, ptr %6, align 8
  store i64 0, ptr %8, align 8
  %11 = load i64, ptr %4, align 8
  %12 = icmp slt i64 %11, 0
  %13 = select i1 %12, i32 1, i32 0
  store i32 %13, ptr %9, align 4
  %14 = load i32, ptr %9, align 4
  %15 = icmp ne i32 %14, 0
  br i1 %15, label %16, label %19

16:                                               ; preds = %3
  %17 = load i64, ptr %4, align 8
  %18 = sub nsw i64 0, %17
  store i64 %18, ptr %4, align 8
  br label %19

19:                                               ; preds = %16, %3
  br label %20

20:                                               ; preds = %41, %19
  %21 = load i64, ptr %8, align 8
  %22 = add i64 %21, 1
  %23 = load i64, ptr %6, align 8
  %24 = load i32, ptr %9, align 4
  %25 = sext i32 %24 to i64
  %26 = sub i64 %23, %25
  %27 = icmp uge i64 %22, %26
  br i1 %27, label %28, label %29

28:                                               ; preds = %20
  br label %44

29:                                               ; preds = %20
  %30 = load i64, ptr %4, align 8
  %31 = srem i64 %30, 10
  %32 = trunc i64 %31 to i8
  %33 = sext i8 %32 to i32
  %34 = add nsw i32 %33, 48
  %35 = trunc i32 %34 to i8
  %36 = load i64, ptr %8, align 8
  %37 = add i64 %36, 1
  store i64 %37, ptr %8, align 8
  %38 = getelementptr inbounds [50 x i8], ptr %7, i64 0, i64 %36
  store i8 %35, ptr %38, align 1
  %39 = load i64, ptr %4, align 8
  %40 = sdiv i64 %39, 10
  store i64 %40, ptr %4, align 8
  br label %41

41:                                               ; preds = %29
  %42 = load i64, ptr %4, align 8
  %43 = icmp ne i64 %42, 0
  br i1 %43, label %20, label %44, !llvm.loop !15

44:                                               ; preds = %41, %28
  %45 = load i32, ptr %9, align 4
  %46 = icmp ne i32 %45, 0
  br i1 %46, label %47, label %51

47:                                               ; preds = %44
  %48 = load i64, ptr %8, align 8
  %49 = add i64 %48, 1
  store i64 %49, ptr %8, align 8
  %50 = getelementptr inbounds [50 x i8], ptr %7, i64 0, i64 %48
  store i8 45, ptr %50, align 1
  br label %51

51:                                               ; preds = %47, %44
  store i64 0, ptr %10, align 8
  br label %52

52:                                               ; preds = %66, %51
  %53 = load i64, ptr %10, align 8
  %54 = load i64, ptr %8, align 8
  %55 = icmp ult i64 %53, %54
  br i1 %55, label %56, label %69

56:                                               ; preds = %52
  %57 = load i64, ptr %8, align 8
  %58 = load i64, ptr %10, align 8
  %59 = sub i64 %57, %58
  %60 = sub i64 %59, 1
  %61 = getelementptr inbounds [50 x i8], ptr %7, i64 0, i64 %60
  %62 = load i8, ptr %61, align 1
  %63 = load ptr, ptr %5, align 8
  %64 = load i64, ptr %10, align 8
  %65 = getelementptr inbounds i8, ptr %63, i64 %64
  store i8 %62, ptr %65, align 1
  br label %66

66:                                               ; preds = %56
  %67 = load i64, ptr %10, align 8
  %68 = add i64 %67, 1
  store i64 %68, ptr %10, align 8
  br label %52, !llvm.loop !16

69:                                               ; preds = %52
  %70 = load ptr, ptr %5, align 8
  %71 = load i64, ptr %8, align 8
  %72 = getelementptr inbounds i8, ptr %70, i64 %71
  store i8 0, ptr %72, align 1
  ret void
}